target datalayout = "e-m:e-p270:32:32-p271:32:32-p272:64:64-i64:64-i128:128-f80:128-n8:16:32:64-S128"
target triple = "x86_64-pc-linux-gnu"

@ml_table_leap = internal global [13 x i32] [i32 0, i32 31, i32 29, i32 31, i32 30, i32 31, i32 30, i32 31, i32 31, i32 30, i32 31, i32 30, i32 31], align 16
@ml_table_common = internal global [13 x i32] [i32 0, i32 31, i32 28, i32 31, i32 30, i32 31, i32 30, i32 31, i32 31, i32 30, i32 31, i32 30, i32 31], align 16

; Function Attrs: nounwind uwtable
define hidden i64 @timelib_days_in_month(i64 noundef %0, i64 noundef %1) #0 {
  %3 = alloca i64, align 8
  %4 = alloca i64, align 8
  store i64 %0, ptr %3, align 8, !tbaa !4
  store i64 %1, ptr %4, align 8, !tbaa !4
  %5 = load i64, ptr %3, align 8, !tbaa !4
  %6 = srem i64 %5, 4
  %7 = icmp eq i64 %6, 0
  br i1 %7, label %8, label %20

8:                                                ; preds = %2
  %9 = load i64, ptr %3, align 8, !tbaa !4
  %10 = srem i64 %9, 100
  %11 = icmp ne i64 %10, 0
  br i1 %11, label %16, label %12

12:                                               ; preds = %8
  %13 = load i64, ptr %3, align 8, !tbaa !4
  %14 = srem i64 %13, 400
  %15 = icmp eq i64 %14, 0
  br i1 %15, label %16, label %20

16:                                               ; preds = %12, %8
  %17 = load i64, ptr %4, align 8, !tbaa !4
  %18 = getelementptr inbounds [13 x i32], ptr @ml_table_leap, i64 0, i64 %17
  %19 = load i32, ptr %18, align 4, !tbaa !8
  br label %24

20:                                               ; preds = %12, %2
  %21 = load i64, ptr %4, align 8, !tbaa !4
  %22 = getelementptr inbounds [13 x i32], ptr @ml_table_common, i64 0, i64 %21
  %23 = load i32, ptr %22, align 4, !tbaa !8
  br label %24

24:                                               ; preds = %20, %16
  %25 = phi i32 [ %19, %16 ], [ %23, %20 ]
  %26 = sext i32 %25 to i64
  ret i64 %26
}

; Function Attrs: nounwind uwtable
define hidden i32 @timelib_valid_date(i64 noundef %0, i64 noundef %1, i64 noundef %2) #0 {
  %4 = alloca i32, align 4
  %5 = alloca i64, align 8
  %6 = alloca i64, align 8
  %7 = alloca i64, align 8
  store i64 %0, ptr %5, align 8, !tbaa !4
  store i64 %1, ptr %6, align 8, !tbaa !4
  store i64 %2, ptr %7, align 8, !tbaa !4
  %8 = load i64, ptr %6, align 8, !tbaa !4
  %9 = icmp slt i64 %8, 1
  br i1 %9, label %22, label %10

10:                                               ; preds = %3
  %11 = load i64, ptr %6, align 8, !tbaa !4
  %12 = icmp sgt i64 %11, 12
  br i1 %12, label %22, label %13

13:                                               ; preds = %10
  %14 = load i64, ptr %7, align 8, !tbaa !4
  %15 = icmp slt i64 %14, 1
  br i1 %15, label %22, label %16

16:                                               ; preds = %13
  %17 = load i64, ptr %7, align 8, !tbaa !4
  %18 = load i64, ptr %5, align 8, !tbaa !4
  %19 = load i64, ptr %6, align 8, !tbaa !4
  %20 = call i64 @timelib_days_in_month(i64 noundef %18, i64 noundef %19)
  %21 = icmp sgt i64 %17, %20
  br i1 %21, label %22, label %23

22:                                               ; preds = %16, %13, %10, %3
  store i32 0, ptr %4, align 4
  br label %24

23:                                               ; preds = %16
  store i32 1, ptr %4, align 4
  br label %24

24:                                               ; preds = %23, %22
  %25 = load i32, ptr %4, align 4
  ret i32 %25
}