; Function Attrs: mustprogress nofree norecurse nosync nounwind willreturn memory(none) uwtable
define hidden range(i32 0, 2) i32 @timelib_valid_date(i64 noundef %0, i64 noundef %1, i64 noundef %2) local_unnamed_addr #0 {
  %4 = add i64 %1, -13
  %or.cond = icmp ult i64 %4, -12
  %5 = icmp slt i64 %2, 1
  %or.cond3 = or i1 %or.cond, %5
  br i1 %or.cond3, label %17, label %6

6:                                                ; preds = %3
  %7 = and i64 %0, 3
  %8 = icmp eq i64 %7, 0
  br i1 %8, label %9, label %13

9:                                                ; preds = %6
  %10 = srem i64 %0, 100
  %.not.i = icmp ne i64 %10, 0
  %11 = srem i64 %0, 400
  %12 = icmp eq i64 %11, 0
  %or.cond.i = or i1 %.not.i, %12
  br i1 %or.cond.i, label %timelib_days_in_month.exit, label %13

13:                                               ; preds = %9, %6
  br label %timelib_days_in_month.exit

timelib_days_in_month.exit:                       ; preds = %9, %13
  %ml_table_leap.pn.i = phi ptr [ @ml_table_common, %13 ], [ @ml_table_leap, %9 ]
  %.in.i = getelementptr inbounds nuw [13 x i32], ptr %ml_table_leap.pn.i, i64 0, i64 %1
  %14 = load i32, ptr %.in.i, align 4, !tbaa !4
  %15 = sext i32 %14 to i64
  %16 = icmp sle i64 %2, %15
  %spec.select = zext i1 %16 to i32
  br label %17

17:                                               ; preds = %timelib_days_in_month.exit, %3
  %.0 = phi i32 [ 0, %3 ], [ %spec.select, %timelib_days_in_month.exit ]
  ret i32 %.0
}